target datalayout = "e-m:e-p270:32:32-p271:32:32-p272:64:64-i64:64-i128:128-f80:128-n8:16:32:64-S128"
target triple = "x86_64-pc-linux-gnu"

%struct._e_prefs = type { ptr, i32, %struct.color_t, %struct.color_t, %struct.color_t, %struct.color_t, %struct.color_t, %struct.color_t, %struct.color_t, i8, i32, ptr, i32, %struct.color_t, %struct.color_t, i32, %struct.color_t, %struct.color_t, i32, %struct.color_t, %struct.color_t, %struct.color_t, %struct.color_t, ptr, ptr, i8, i8, i8, i32, i32, i32, ptr, i32, ptr, i8, i8, i8, ptr, ptr, ptr, i32, i32, i32, i32, i8, i32, i32, i32, i32, i32, ptr, i8, i8, i8, i8, i8, ptr, ptr, ptr, ptr, ptr, ptr, ptr, ptr, ptr, i8, i8, i8, i8, i32, i8, i8, i8, ptr, i32, i8, i8, i32, i8, i8, i8, i32, i8, i32, i8, i8, i8, i32, i32, i32, ptr, i8, i8, i8, i8, i8, i8, i32, i32, i8, i8, i8, i8, i32, i32, i32, i32, i8, i8, i32, i8, i8, i32, i32, i8, i8, i8, i32, i8, i8, i8 }
%struct.color_t = type { i16, i16, i16 }

@.str = private unnamed_addr constant [7 x i8] c"extcap\00", align 1
@prefs = external global %struct._e_prefs, align 8
@.str.3 = private unnamed_addr constant [11 x i8] c"extcap.cfg\00", align 1

; Function Attrs: null_pointer_is_valid sspstrong uwtable
define hidden void @extcap_register_preferences() #0 {
  %1 = alloca ptr, align 8
  %2 = alloca i32, align 4
  call void @profile_register_persconffile(ptr noundef @.str.3)
  %3 = load i8, ptr getelementptr inbounds nuw (%struct._e_prefs, ptr @prefs, i32 0, i32 71), align 1, !range !9, !noundef !10
  %4 = trunc i8 %3 to i1
  br i1 %4, label %5, label %6

5:                                                ; preds = %0
  br label %14

6:                                                ; preds = %0
  call void @llvm.lifetime.start.p0(i64 8, ptr %1) #9
  %7 = call ptr @prefs_find_module(ptr noundef @.str)
  store ptr %7, ptr %1, align 8
  %8 = load ptr, ptr %1, align 8
  %9 = icmp ne ptr %8, null
  br i1 %9, label %11, label %10

10:                                               ; preds = %6
  store i32 1, ptr %2, align 4
  br label %12

11:                                               ; preds = %6
  call void @extcap_ensure_all_interfaces_loaded()
  store i32 0, ptr %2, align 4
  br label %12

12:                                               ; preds = %11, %10
  call void @llvm.lifetime.end.p0(i64 8, ptr %1) #9
  %13 = load i32, ptr %2, align 4
  switch i32 %13, label %15 [
    i32 0, label %14
    i32 1, label %14
  ]

14:                                               ; preds = %5, %12, %12
  ret void

15:                                               ; preds = %12
  unreachable
}