; Function Attrs: null_pointer_is_valid sspstrong uwtable
define hidden void @extcap_register_preferences() local_unnamed_addr #0 {
  tail call void @profile_register_persconffile(ptr noundef nonnull @.str.3)
  %1 = load i8, ptr getelementptr inbounds nuw (i8, ptr @prefs, i64 361), align 1, !range !6, !noundef !7
  %2 = trunc nuw i8 %1 to i1
  br i1 %2, label %6, label %3

3:                                                ; preds = %0
  %4 = tail call ptr @prefs_find_module(ptr noundef nonnull @.str)
  %.not = icmp eq ptr %4, null
  br i1 %.not, label %6, label %5

5:                                                ; preds = %3
  tail call fastcc void @extcap_ensure_all_interfaces_loaded()
  br label %6

6:                                                ; preds = %5, %3, %0
  ret void
}